; Function Attrs: mustprogress uwtable
define void @_ZN3nix11RemoteStore13optimiseStoreEv(ptr nocapture noundef nonnull readonly align 8 dereferenceable(25) %0) unnamed_addr #5 align 2 personality ptr @__gxx_personality_v0 {
  %2 = alloca [8 x i8], align 1
  %3 = alloca %"struct.nix::RemoteStore::ConnectionHandle", align 8
  call void @_ZN3nix11RemoteStore13getConnectionEv(ptr dead_on_unwind nonnull writable sret(%"struct.nix::RemoteStore::ConnectionHandle") align 8 %3, ptr noundef nonnull align 8 dereferenceable(25) %0)
  %4 = getelementptr inbounds i8, ptr %3, i64 8
  %5 = load ptr, ptr %4, align 8
  %6 = getelementptr inbounds i8, ptr %5, i64 8
  %7 = load ptr, ptr %6, align 8
  %8 = getelementptr i8, ptr %7, i64 -48
  %9 = load i64, ptr %8, align 8
  %10 = getelementptr inbounds i8, ptr %6, i64 %9
  call void @llvm.lifetime.start.p0(i64 8, ptr nonnull %2)
  store i8 34, ptr %2, align 1
  %11 = getelementptr inbounds i8, ptr %2, i64 1
  call void @llvm.memset.p0.i64(ptr noundef nonnull align 1 dereferenceable(7) %11, i8 0, i64 7, i1 false)
  %12 = load ptr, ptr %10, align 8
  %13 = getelementptr inbounds i8, ptr %12, i64 16
  %14 = load ptr, ptr %13, align 8
  invoke void %14(ptr noundef nonnull align 8 dereferenceable(8) %10, i64 8, ptr nonnull %2)
          to label %15 unwind label %20

15:                                               ; preds = %1
  call void @llvm.lifetime.end.p0(i64 8, ptr nonnull %2)
  invoke void @_ZN3nix11RemoteStore16ConnectionHandle13processStderrEPNS_4SinkEPNS_6SourceEb(ptr noundef nonnull align 8 dereferenceable(33) %3, ptr noundef null, ptr noundef null, i1 noundef zeroext true)
          to label %16 unwind label %20

16:                                               ; preds = %15
  %17 = load ptr, ptr %4, align 8
  %18 = getelementptr inbounds i8, ptr %17, i64 64
  %19 = invoke noundef i32 @_ZN3nix7readNumIjEET_RNS_6SourceE(ptr noundef nonnull align 8 dereferenceable(8) %18)
          to label %_ZN3nix7readIntERNS_6SourceE.exit unwind label %20

_ZN3nix7readIntERNS_6SourceE.exit:                ; preds = %16
  call void @_ZN3nix11RemoteStore16ConnectionHandleD1Ev(ptr noundef nonnull align 8 dereferenceable(33) %3) #29
  ret void

20:                                               ; preds = %16, %1, %15
  %21 = landingpad { ptr, i32 }
          cleanup
  call void @_ZN3nix11RemoteStore16ConnectionHandleD1Ev(ptr noundef nonnull align 8 dereferenceable(33) %3) #29
  resume { ptr, i32 } %21
}